target datalayout = "e-m:e-p270:32:32-p271:32:32-p272:64:64-i64:64-i128:128-f80:128-n8:16:32:64-S128"
target triple = "x86_64-pc-linux-gnu"

%struct.Vec_Int_t_ = type { i32, i32, ptr }
%struct.Abc_Ntk_t_ = type { i32, i32, ptr, ptr, ptr, ptr, ptr, ptr, ptr, ptr, ptr, ptr, ptr, [11 x i32], i32, i32, i32, i32, ptr, i32, ptr, ptr, i32, i32, i32, double, i32, %struct.Vec_Int_t_, ptr, ptr, ptr, ptr, ptr, float, i32, ptr, ptr, ptr, ptr, ptr, ptr, ptr, ptr, ptr, ptr, ptr, ptr, ptr, ptr, ptr, ptr, ptr, ptr, ptr, ptr, ptr, ptr }

@.str = private unnamed_addr constant [52 x i8] c"Abc_NtkIvyBefore(): Converting to SOPs has failed.\0A\00", align 1
@.str.1 = private unnamed_addr constant [51 x i8] c"Warning: The network has %d self-feeding latches.\0A\00", align 1
@.str.2 = private unnamed_addr constant [72 x i8] c"Warning: The choice nodes in the initial AIG are removed by strashing.\0A\00", align 1
@.str.3 = private unnamed_addr constant [23 x i8] c"AIG check has failed.\0A\00", align 1

; Function Attrs: inlinehint nounwind uwtable
define internal void @Vec_IntFree(ptr noundef %0) #2 {
  %2 = alloca ptr, align 8
  store ptr %0, ptr %2, align 8, !tbaa !12
  %3 = load ptr, ptr %2, align 8, !tbaa !12
  %4 = getelementptr inbounds nuw %struct.Vec_Int_t_, ptr %3, i32 0, i32 2
  %5 = load ptr, ptr %4, align 8, !tbaa !14
  %6 = icmp ne ptr %5, null
  br i1 %6, label %7, label %13

7:                                                ; preds = %1
  %8 = load ptr, ptr %2, align 8, !tbaa !12
  %9 = getelementptr inbounds nuw %struct.Vec_Int_t_, ptr %8, i32 0, i32 2
  %10 = load ptr, ptr %9, align 8, !tbaa !14
  call void @free(ptr noundef %10) #11
  %11 = load ptr, ptr %2, align 8, !tbaa !12
  %12 = getelementptr inbounds nuw %struct.Vec_Int_t_, ptr %11, i32 0, i32 2
  store ptr null, ptr %12, align 8, !tbaa !14
  br label %14

13:                                               ; preds = %1
  br label %14

14:                                               ; preds = %13, %7
  %15 = load ptr, ptr %2, align 8, !tbaa !12
  %16 = icmp ne ptr %15, null
  br i1 %16, label %17, label %19

17:                                               ; preds = %14
  %18 = load ptr, ptr %2, align 8, !tbaa !12
  call void @free(ptr noundef %18) #11
  store ptr null, ptr %2, align 8, !tbaa !12
  br label %20

19:                                               ; preds = %14
  br label %20

20:                                               ; preds = %19, %17
  ret void
}

; Function Attrs: inlinehint nounwind uwtable
define internal i32 @Abc_NtkLatchNum(ptr noundef %0) #2 {
  %2 = alloca ptr, align 8
  store ptr %0, ptr %2, align 8, !tbaa !3
  %3 = load ptr, ptr %2, align 8, !tbaa !3
  %4 = getelementptr inbounds nuw %struct.Abc_Ntk_t_, ptr %3, i32 0, i32 13
  %5 = getelementptr inbounds [11 x i32], ptr %4, i64 0, i64 8
  %6 = load i32, ptr %5, align 8, !tbaa !8
  ret i32 %6
}

; Function Attrs: inlinehint nounwind uwtable
define internal i32 @Abc_NtkIsBddLogic(ptr noundef %0) #2 {
  %2 = alloca ptr, align 8
  store ptr %0, ptr %2, align 8, !tbaa !3
  %3 = load ptr, ptr %2, align 8, !tbaa !3
  %4 = getelementptr inbounds nuw %struct.Abc_Ntk_t_, ptr %3, i32 0, i32 1
  %5 = load i32, ptr %4, align 4, !tbaa !17
  %6 = icmp eq i32 %5, 2
  br i1 %6, label %7, label %12

7:                                                ; preds = %1
  %8 = load ptr, ptr %2, align 8, !tbaa !3
  %9 = getelementptr inbounds nuw %struct.Abc_Ntk_t_, ptr %8, i32 0, i32 0
  %10 = load i32, ptr %9, align 8, !tbaa !30
  %11 = icmp eq i32 %10, 2
  br label %12

12:                                               ; preds = %7, %1
  %13 = phi i1 [ false, %1 ], [ %11, %7 ]
  %14 = zext i1 %13 to i32
  ret i32 %14
}

; Function Attrs: nounwind uwtable
define ptr @Abc_NtkIvyBefore(ptr noundef %0, i32 noundef %1, i32 noundef %2) #0 {
  %4 = alloca ptr, align 8
  %5 = alloca ptr, align 8
  %6 = alloca i32, align 4
  %7 = alloca i32, align 4
  %8 = alloca ptr, align 8
  %9 = alloca i32, align 4
  %10 = alloca i32, align 4
  %11 = alloca ptr, align 8
  store ptr %0, ptr %5, align 8, !tbaa !3
  store i32 %1, ptr %6, align 4, !tbaa !8
  store i32 %2, ptr %7, align 4, !tbaa !8
  call void @llvm.lifetime.start.p0(i64 8, ptr %8) #11
  %12 = load ptr, ptr %5, align 8, !tbaa !3
  %13 = call i32 @Abc_NtkIsBddLogic(ptr noundef %12)
  %14 = icmp ne i32 %13, 0
  br i1 %14, label %15, label %22

15:                                               ; preds = %3
  %16 = load ptr, ptr %5, align 8, !tbaa !3
  %17 = call i32 @Abc_NtkBddToSop(ptr noundef %16, i32 noundef -1, i32 noundef 1000000000, i32 noundef 1)
  %18 = icmp ne i32 %17, 0
  br i1 %18, label %21, label %19

19:                                               ; preds = %15
  %20 = call i32 (ptr, ...) @printf(ptr noundef @.str)
  store ptr null, ptr %4, align 8
  store i32 1, ptr %9, align 4
  br label %65

21:                                               ; preds = %15
  br label %22

22:                                               ; preds = %21, %3
  %23 = load i32, ptr %6, align 4, !tbaa !8
  %24 = icmp ne i32 %23, 0
  br i1 %24, label %25, label %33

25:                                               ; preds = %22
  %26 = load ptr, ptr %5, align 8, !tbaa !3
  %27 = call i32 @Abc_NtkCountSelfFeedLatches(ptr noundef %26)
  %28 = icmp ne i32 %27, 0
  br i1 %28, label %29, label %33

29:                                               ; preds = %25
  %30 = load ptr, ptr %5, align 8, !tbaa !3
  %31 = call i32 @Abc_NtkCountSelfFeedLatches(ptr noundef %30)
  %32 = call i32 (ptr, ...) @printf(ptr noundef @.str.1, i32 noundef %31)
  br label %33

33:                                               ; preds = %29, %25, %22
  %34 = load ptr, ptr %5, align 8, !tbaa !3
  %35 = call i32 @Abc_NtkGetChoiceNum(ptr noundef %34)
  %36 = icmp ne i32 %35, 0
  br i1 %36, label %37, label %39

37:                                               ; preds = %33
  %38 = call i32 (ptr, ...) @printf(ptr noundef @.str.2)
  br label %39

39:                                               ; preds = %37, %33
  %40 = load ptr, ptr %5, align 8, !tbaa !3
  %41 = call ptr @Abc_NtkToIvy(ptr noundef %40)
  store ptr %41, ptr %8, align 8, !tbaa !10
  %42 = load ptr, ptr %8, align 8, !tbaa !10
  %43 = call i32 @Ivy_ManCheck(ptr noundef %42)
  %44 = icmp ne i32 %43, 0
  br i1 %44, label %48, label %45

45:                                               ; preds = %39
  %46 = call i32 (ptr, ...) @printf(ptr noundef @.str.3)
  %47 = load ptr, ptr %8, align 8, !tbaa !10
  call void @Ivy_ManStop(ptr noundef %47)
  store ptr null, ptr %4, align 8
  store i32 1, ptr %9, align 4
  br label %65

48:                                               ; preds = %39
  %49 = load i32, ptr %6, align 4, !tbaa !8
  %50 = icmp ne i32 %49, 0
  br i1 %50, label %51, label %63

51:                                               ; preds = %48
  call void @llvm.lifetime.start.p0(i64 4, ptr %10) #11
  %52 = load ptr, ptr %5, align 8, !tbaa !3
  %53 = call i32 @Abc_NtkLatchNum(ptr noundef %52)
  store i32 %53, ptr %10, align 4, !tbaa !8
  call void @llvm.lifetime.start.p0(i64 8, ptr %11) #11
  %54 = load ptr, ptr %5, align 8, !tbaa !3
  %55 = load i32, ptr %7, align 4, !tbaa !8
  %56 = call ptr @Abc_NtkCollectLatchValuesIvy(ptr noundef %54, i32 noundef %55)
  store ptr %56, ptr %11, align 8, !tbaa !12
  %57 = load ptr, ptr %8, align 8, !tbaa !10
  %58 = load i32, ptr %10, align 4, !tbaa !8
  %59 = load ptr, ptr %11, align 8, !tbaa !12
  %60 = getelementptr inbounds nuw %struct.Vec_Int_t_, ptr %59, i32 0, i32 2
  %61 = load ptr, ptr %60, align 8, !tbaa !14
  call void @Ivy_ManMakeSeq(ptr noundef %57, i32 noundef %58, ptr noundef %61)
  %62 = load ptr, ptr %11, align 8, !tbaa !12
  call void @Vec_IntFree(ptr noundef %62)
  call void @llvm.lifetime.end.p0(i64 8, ptr %11) #11
  call void @llvm.lifetime.end.p0(i64 4, ptr %10) #11
  br label %63

63:                                               ; preds = %51, %48
  %64 = load ptr, ptr %8, align 8, !tbaa !10
  store ptr %64, ptr %4, align 8
  store i32 1, ptr %9, align 4
  br label %65

65:                                               ; preds = %63, %45, %19
  call void @llvm.lifetime.end.p0(i64 8, ptr %8) #11
  %66 = load ptr, ptr %4, align 8
  ret ptr %66
}