; Function Attrs: nounwind uwtable
define noundef ptr @Abc_NtkIvyBefore(ptr noundef %0, i32 noundef %1, i32 noundef %2) local_unnamed_addr #0 {
  %4 = getelementptr inbounds nuw i8, ptr %0, i64 4
  %5 = load i32, ptr %4, align 4, !tbaa !3
  %6 = icmp eq i32 %5, 2
  br i1 %6, label %Abc_NtkIsBddLogic.exit, label %Abc_NtkIsBddLogic.exit.thread

Abc_NtkIsBddLogic.exit:                           ; preds = %3
  %7 = load i32, ptr %0, align 8, !tbaa !24
  %.not = icmp eq i32 %7, 2
  br i1 %.not, label %8, label %Abc_NtkIsBddLogic.exit.thread

8:                                                ; preds = %Abc_NtkIsBddLogic.exit
  %9 = tail call i32 @Abc_NtkBddToSop(ptr noundef nonnull %0, i32 noundef -1, i32 noundef 1000000000, i32 noundef 1) #15
  %.not18 = icmp eq i32 %9, 0
  br i1 %.not18, label %10, label %Abc_NtkIsBddLogic.exit.thread

10:                                               ; preds = %8
  %puts = tail call i32 @puts(ptr nonnull dereferenceable(1) @str)
  br label %30

Abc_NtkIsBddLogic.exit.thread:                    ; preds = %3, %8, %Abc_NtkIsBddLogic.exit
  %.not19 = icmp eq i32 %1, 0
  br i1 %.not19, label %16, label %11

11:                                               ; preds = %Abc_NtkIsBddLogic.exit.thread
  %12 = tail call i32 @Abc_NtkCountSelfFeedLatches(ptr noundef nonnull %0) #15
  %.not20 = icmp eq i32 %12, 0
  br i1 %.not20, label %16, label %13

13:                                               ; preds = %11
  %14 = tail call i32 @Abc_NtkCountSelfFeedLatches(ptr noundef nonnull %0) #15
  %15 = tail call i32 (ptr, ...) @printf(ptr noundef nonnull dereferenceable(1) @.str.1, i32 noundef %14)
  br label %16

16:                                               ; preds = %13, %11, %Abc_NtkIsBddLogic.exit.thread
  %17 = tail call i32 @Abc_NtkGetChoiceNum(ptr noundef nonnull %0) #15
  %.not21 = icmp eq i32 %17, 0
  br i1 %.not21, label %19, label %18

18:                                               ; preds = %16
  %puts22 = tail call i32 @puts(ptr nonnull dereferenceable(1) @str.5)
  br label %19

19:                                               ; preds = %18, %16
  %20 = tail call fastcc ptr @Abc_NtkToIvy(ptr noundef nonnull %0)
  %21 = tail call i32 @Ivy_ManCheck(ptr noundef %20) #15
  %.not23 = icmp eq i32 %21, 0
  br i1 %.not23, label %22, label %23

22:                                               ; preds = %19
  %puts24 = tail call i32 @puts(ptr nonnull dereferenceable(1) @str.6)
  tail call void @Ivy_ManStop(ptr noundef %20) #15
  br label %30

23:                                               ; preds = %19
  br i1 %.not19, label %30, label %24

24:                                               ; preds = %23
  %25 = getelementptr i8, ptr %0, i64 128
  %.val = load i32, ptr %25, align 8, !tbaa !25
  %26 = tail call fastcc ptr @Abc_NtkCollectLatchValuesIvy(ptr noundef nonnull %0, i32 noundef %2)
  %27 = getelementptr inbounds nuw i8, ptr %26, i64 8
  %28 = load ptr, ptr %27, align 8, !tbaa !26
  tail call void @Ivy_ManMakeSeq(ptr noundef %20, i32 noundef %.val, ptr noundef %28) #15
  %.not.i = icmp eq ptr %28, null
  br i1 %.not.i, label %Vec_IntFree.exit, label %29

29:                                               ; preds = %24
  tail call void @free(ptr noundef nonnull %28) #15
  br label %Vec_IntFree.exit

Vec_IntFree.exit:                                 ; preds = %24, %29
  tail call void @free(ptr noundef nonnull %26) #15
  br label %30

30:                                               ; preds = %23, %Vec_IntFree.exit, %22, %10
  %.0 = phi ptr [ null, %22 ], [ null, %10 ], [ %20, %Vec_IntFree.exit ], [ %20, %23 ]
  ret ptr %.0
}